; Function Attrs: nounwind sspstrong uwtable
define internal fastcc void @msix_mask_all(ptr noundef %dev, i32 noundef %nentries) unnamed_addr #0 {
entry:
  %cmp7.not = icmp eq i32 %nentries, 0
  br i1 %cmp7.not, label %for.end, label %for.body.lr.ph

for.body.lr.ph:                                   ; preds = %entry
  %msix_function_masked.i = getelementptr inbounds nuw i8, ptr %dev, i64 2152
  %msix_table.i.i = getelementptr inbounds nuw i8, ptr %dev, i64 1272
  %wide.trip.count = zext i32 %nentries to i64
  br label %for.body

for.body:                                         ; preds = %for.body.lr.ph, %msix_is_masked.exit
  %indvars.iv = phi i64 [ 0, %for.body.lr.ph ], [ %indvars.iv.next, %msix_is_masked.exit ]
  %0 = trunc nuw i64 %indvars.iv to i32
  %mul = shl i32 %0, 4
  %add = or disjoint i32 %mul, 12
  %1 = load i8, ptr %msix_function_masked.i, align 8
  %tobool.i = trunc i8 %1 to i1
  %2 = load i8, ptr @xen_allowed, align 1
  %tobool.i.i = trunc i8 %2 to i1
  br i1 %tobool.i.i, label %land.lhs.true.i.i, label %if.end.i.i

land.lhs.true.i.i:                                ; preds = %for.body
  %3 = load ptr, ptr %msix_table.i.i, align 8
  %add.i.i = or disjoint i32 %mul, 8
  %idxprom.i.i = zext i32 %add.i.i to i64
  %arrayidx.i.i = getelementptr i8, ptr %3, i64 %idxprom.i.i
  %arrayidx.val.i.i = load i32, ptr %arrayidx.i.i, align 1
  %call1.i.i = tail call i32 @xen_is_pirq_msi(i32 noundef %arrayidx.val.i.i) #14
  %tobool2.not.i.i = icmp ne i32 %call1.i.i, 0
  %brmerge.i.i = or i1 %tobool2.not.i.i, %tobool.i
  %not.tobool2.not.i.i = xor i1 %tobool2.not.i.i, true
  br i1 %brmerge.i.i, label %msix_is_masked.exit, label %lor.rhs.i.i

if.end.i.i:                                       ; preds = %for.body
  br i1 %tobool.i, label %msix_is_masked.exit, label %lor.rhs.i.i

lor.rhs.i.i:                                      ; preds = %if.end.i.i, %land.lhs.true.i.i
  %4 = load ptr, ptr %msix_table.i.i, align 8
  %idxprom6.i.i = zext i32 %add to i64
  %arrayidx7.i.i = getelementptr i8, ptr %4, i64 %idxprom6.i.i
  %5 = load i8, ptr %arrayidx7.i.i, align 1
  %6 = and i8 %5, 1
  %tobool8.i.i = icmp ne i8 %6, 0
  br label %msix_is_masked.exit

msix_is_masked.exit:                              ; preds = %land.lhs.true.i.i, %if.end.i.i, %lor.rhs.i.i
  %retval.0.i.i = phi i1 [ %not.tobool2.not.i.i, %land.lhs.true.i.i ], [ true, %if.end.i.i ], [ %tobool8.i.i, %lor.rhs.i.i ]
  %7 = load ptr, ptr %msix_table.i.i, align 8
  %idxprom = zext i32 %add to i64
  %arrayidx = getelementptr i8, ptr %7, i64 %idxprom
  %8 = load i8, ptr %arrayidx, align 1
  %9 = or i8 %8, 1
  store i8 %9, ptr %arrayidx, align 1
  tail call fastcc void @msix_handle_mask_update(ptr noundef nonnull %dev, i32 noundef %0, i1 noundef zeroext %retval.0.i.i)
  %indvars.iv.next = add nuw nsw i64 %indvars.iv, 1
  %exitcond.not = icmp eq i64 %indvars.iv.next, %wide.trip.count
  br i1 %exitcond.not, label %for.end, label %for.body, !llvm.loop !7

for.end:                                          ; preds = %msix_is_masked.exit, %entry
  ret void
}